Certificate:
    Data:
        Version: 3 (0x2)
        Serial Number: 19 (0x13)
    Signature Algorithm: sha256WithRSAEncryption
        Issuer: C=NL, ST=NH, L=Amsterdam, O=HiSPARC, Nikhef, OU=HiSPARC, CN=HiSPARC Admin VPN/emailAddress=hisparc@nikhef.nl
        Validity
            Not Before: Apr 16 06:05:35 2018 GMT
            Not After : Mar 23 06:05:35 2118 GMT
        Subject: C=NL, ST=NH, O=HiSPARC, Nikhef, OU=HiSPARC, CN=server/emailAddress=hisparc@nikhef.nl
        Subject Public Key Info:
            Public Key Algorithm: rsaEncryption
                Public-Key: (2048 bit)
                Modulus:
                    00:c9:82:71:0d:62:65:97:7c:3e:b4:b5:53:86:99:
                    5c:8f:7b:a6:bd:4b:d1:6d:97:a4:a4:3a:3e:5f:d3:
                    6c:cb:4e:ea:bd:65:69:45:be:8c:58:05:fc:90:88:
                    48:6c:9e:03:00:35:66:d8:f9:0e:1d:a1:e6:a8:22:
                    78:f9:36:a8:cf:3e:ac:ac:85:4e:4d:43:26:fa:08:
                    9c:5b:32:e2:e6:14:1c:6c:04:df:8f:09:10:04:28:
                    58:87:a1:ac:50:3f:b5:1d:73:ac:e7:cf:e7:7f:65:
                    ac:c7:bd:a7:9a:42:44:a3:96:ed:e1:b0:08:89:73:
                    4c:a0:a5:5f:d6:16:c5:5f:67:ba:d7:cb:21:09:dd:
                    7e:db:c1:de:20:5e:2e:20:74:0a:f7:08:4c:e5:db:
                    b6:b3:37:71:ce:24:a9:fd:f9:94:fd:82:1f:ca:83:
                    bb:22:71:83:43:6a:0e:e8:9c:ed:5b:4a:29:95:30:
                    3a:d7:d4:fd:ff:44:b6:81:b0:91:30:22:7d:68:78:
                    e6:19:eb:93:8d:8a:3a:17:99:44:29:b8:0f:92:d3:
                    00:fc:83:d5:47:d4:9d:a8:4d:32:06:5e:a9:06:8d:
                    36:7c:30:ff:35:86:4d:2e:46:d1:52:af:82:d4:eb:
                    9e:bb:08:10:41:63:b6:fb:98:eb:c1:13:23:18:c8:
                    2f:a7
                Exponent: 65537 (0x10001)
        X509v3 extensions:
            X509v3 Basic Constraints: 
                CA:FALSE
            Netscape Comment: 
                OpenSSL Generated Server Certificate
            X509v3 Subject Key Identifier: 
                DB:8F:7E:2E:3F:5D:DB:C7:6F:F8:8F:51:40:89:57:37:F2:35:A9:D8
            X509v3 Authority Key Identifier: 
                keyid:29:FF:83:08:11:9F:53:34:38:B5:60:C7:28:65:11:FE:CC:A1:D5:33
                DirName:/C=NL/ST=NH/L=Amsterdam/O=HiSPARC, Nikhef/OU=HiSPARC/CN=HiSPARC Admin VPN/emailAddress=hisparc@nikhef.nl
                serial:EC:E8:7C:63:9F:37:38:CE

            X509v3 Extended Key Usage: 
                TLS Web Server Authentication
            X509v3 Key Usage: 
                Digital Signature, Key Encipherment
    Signature Algorithm: sha256WithRSAEncryption
         9f:cd:06:52:b0:83:f2:33:62:b3:bf:df:1e:11:a8:23:8f:df:
         fa:00:61:54:02:ee:f9:49:70:df:21:ac:01:eb:79:48:fb:7d:
         80:e3:76:87:9f:5c:25:ce:fd:5b:59:24:33:34:b2:00:0f:75:
         01:17:53:01:39:be:56:1f:29:53:2a:e7:8b:53:ea:da:a2:82:
         0f:44:c1:0d:69:c7:3c:65:e4:41:93:b7:b4:9e:ae:2a:8e:24:
         da:75:75:08:7d:95:36:cf:03:f4:05:6d:f2:73:be:e9:80:57:
         3f:d8:f0:e6:39:96:9f:20:6a:d8:94:9d:59:67:e9:6c:3f:dc:
         97:5d:a0:3b:86:26:3b:98:de:00:c0:44:aa:29:a9:ad:c1:0a:
         07:4f:02:aa:3e:aa:af:a5:4d:50:ab:1a:de:ee:83:9f:e4:0b:
         f4:4c:cb:b1:ad:a5:8c:97:18:07:2a:32:f2:ca:71:a1:47:21:
         4f:c2:b5:9e:35:46:16:f1:81:17:0c:da:2f:47:10:bf:ae:90:
         cf:46:99:3e:0e:17:d7:bd:97:57:1e:eb:57:d7:43:ed:89:12:
         9d:9d:cd:e0:24:86:66:47:9a:69:0d:26:96:17:d4:bc:68:76:
         2c:05:05:96:9e:3e:e7:12:98:cc:39:70:78:a1:6e:d5:2b:15:
         49:68:95:97
-----BEGIN CERTIFICATE-----
MIIE5jCCA86gAwIBAgIBEzANBgkqhkiG9w0BAQsFADCBmDELMAkGA1UEBhMCTkwx
CzAJBgNVBAgTAk5IMRIwEAYDVQQHEwlBbXN0ZXJkYW0xGDAWBgNVBAoTD0hpU1BB
UkMsIE5pa2hlZjEQMA4GA1UECxMHSGlTUEFSQzEaMBgGA1UEAxMRSGlTUEFSQyBB
ZG1pbiBWUE4xIDAeBgkqhkiG9w0BCQEWEWhpc3BhcmNAbmlraGVmLm5sMCAXDTE4
MDQxNjA2MDUzNVoYDzIxMTgwMzIzMDYwNTM1WjB5MQswCQYDVQQGEwJOTDELMAkG
A1UECBMCTkgxGDAWBgNVBAoTD0hpU1BBUkMsIE5pa2hlZjEQMA4GA1UECxMHSGlT
UEFSQzEPMA0GA1UEAxMGc2VydmVyMSAwHgYJKoZIhvcNAQkBFhFoaXNwYXJjQG5p
a2hlZi5ubDCCASIwDQYJKoZIhvcNAQEBBQADggEPADCCAQoCggEBAMmCcQ1iZZd8
PrS1U4aZXI97pr1L0W2XpKQ6Pl/TbMtO6r1laUW+jFgF/JCISGyeAwA1Ztj5Dh2h
5qgiePk2qM8+rKyFTk1DJvoInFsy4uYUHGwE348JEAQoWIehrFA/tR1zrOfP539l
rMe9p5pCRKOW7eGwCIlzTKClX9YWxV9nutfLIQndftvB3iBeLiB0CvcITOXbtrM3
cc4kqf35lP2CH8qDuyJxg0NqDuic7VtKKZUwOtfU/f9EtoGwkTAifWh45hnrk42K
OheZRCm4D5LTAPyD1UfUnahNMgZeqQaNNnww/zWGTS5G0VKvgtTrnrsIEEFjtvuY
68ETIxjIL6cCAwEAAaOCAVUwggFRMAkGA1UdEwQCMAAwMwYJYIZIAYb4QgENBCYW
JE9wZW5TU0wgR2VuZXJhdGVkIFNlcnZlciBDZXJ0aWZpY2F0ZTAdBgNVHQ4EFgQU
249+Lj9d28dv+I9RQIlXN/I1qdgwgc0GA1UdIwSBxTCBwoAUKf+DCBGfUzQ4tWDH
KGUR/syh1TOhgZ6kgZswgZgxCzAJBgNVBAYTAk5MMQswCQYDVQQIEwJOSDESMBAG
A1UEBxMJQW1zdGVyZGFtMRgwFgYDVQQKEw9IaVNQQVJDLCBOaWtoZWYxEDAOBgNV
BAsTB0hpU1BBUkMxGjAYBgNVBAMTEUhpU1BBUkMgQWRtaW4gVlBOMSAwHgYJKoZI
hvcNAQkBFhFoaXNwYXJjQG5pa2hlZi5ubIIJAOzofGOfNzjOMBMGA1UdJQQMMAoG
CCsGAQUFBwMBMAsGA1UdDwQEAwIFoDANBgkqhkiG9w0BAQsFAAOCAQEAn80GUrCD
8jNis7/fHhGoI4/f+gBhVALu+Ulw3yGsAet5SPt9gON2h59cJc79W1kkMzSyAA91
ARdTATm+Vh8pUyrni1Pq2qKCD0TBDWnHPGXkQZO3tJ6uKo4k2nV1CH2VNs8D9AVt
8nO+6YBXP9jw5jmWnyBq2JSdWWfpbD/cl12gO4YmO5jeAMBEqimprcEKB08Cqj6q
r6VNUKsa3u6Dn+QL9EzLsa2ljJcYByoy8spxoUchT8K1njVGFvGBFwzaL0cQv66Q
z0aZPg4X172XVx7rV9dD7YkSnZ3N4CSGZkeaaQ0mlhfUvGh2LAUFlp4+5xKYzDlw
eKFu1SsVSWiVlw==
-----END CERTIFICATE-----
