Certificate:
    Data:
        Version: 3 (0x2)
        Serial Number: 1 (0x1)
        Signature Algorithm: md5WithRSAEncryption
        Issuer: C=NL, ST=NH, L=Amsterdam, O=HiSPARC, Nikhef, OU=HiSPARC, CN=tietar.nikhef.nl/emailAddress=hisparc@nikhef.nl
        Validity
            Not Before: Mar  3 09:55:18 2008 GMT
            Not After : Mar  1 09:55:18 2018 GMT
        Subject: C=NL, ST=NH, O=HiSPARC, Nikhef, OU=HiSPARC, CN=tietar.nikhef.nl/emailAddress=hisparc@nikhef.nl
        Subject Public Key Info:
            Public Key Algorithm: rsaEncryption
            RSA Public Key: (2048 bit)
                Modulus (2048 bit):
                    00:b9:7c:74:f2:6a:af:37:a8:bc:15:a4:95:26:e9:
                    33:e3:6b:39:5b:00:30:ee:66:0f:26:7d:6c:f8:37:
                    19:74:02:fe:2b:57:9e:05:c6:38:be:8b:1c:05:c8:
                    c9:62:4c:2b:b3:92:f4:33:e6:f1:d0:35:7d:20:66:
                    f6:b0:21:45:52:30:3f:1b:a8:e5:8f:30:dd:5a:cb:
                    c1:00:41:90:59:92:57:a6:6a:b3:d8:1e:76:c2:40:
                    3e:1b:d8:1f:33:32:d1:ac:e3:5a:ba:37:bb:cb:bc:
                    f6:71:79:14:34:de:9d:0b:f5:b6:ca:f9:c6:d9:de:
                    c8:45:24:9a:bc:31:74:14:69:1a:c6:6a:a6:a1:a6:
                    e9:76:58:6a:4f:fb:54:2b:9d:3f:9d:18:84:eb:72:
                    97:3c:07:00:2f:86:10:f4:18:c2:bd:20:c9:68:16:
                    2b:66:7b:5f:2b:50:64:62:7c:32:49:23:2c:a3:15:
                    72:9b:77:33:4b:5e:04:ef:8e:07:63:f5:0a:1e:6c:
                    e7:44:de:1d:f7:4f:c0:6c:ff:26:e3:49:cc:06:61:
                    91:b0:2a:aa:e3:48:1a:ca:b9:7a:27:0f:29:b8:79:
                    06:97:3f:da:58:d1:44:70:4c:54:30:b0:10:40:9e:
                    e8:c8:52:1e:9b:91:53:d9:aa:e4:13:94:81:33:dd:
                    83:93
                Exponent: 65537 (0x10001)
        X509v3 extensions:
            X509v3 Basic Constraints: 
                CA:FALSE
            Netscape Cert Type: 
                SSL Server
            Netscape Comment: 
                OpenSSL Generated Server Certificate
            X509v3 Subject Key Identifier: 
                01:10:91:41:6C:80:09:2A:6C:CC:DD:FA:D0:3C:9F:00:BD:5B:99:0A
            X509v3 Authority Key Identifier: 
                keyid:AB:C3:47:14:D2:EE:9B:1B:E6:E3:DC:4F:59:70:95:55:C6:06:72:F1
                DirName:/C=NL/ST=NH/L=Amsterdam/O=HiSPARC, Nikhef/OU=HiSPARC/CN=tietar.nikhef.nl/emailAddress=hisparc@nikhef.nl
                serial:C5:B6:D3:9D:09:88:66:AD

    Signature Algorithm: md5WithRSAEncryption
        73:08:06:dd:9c:8e:be:19:92:a6:b6:61:4a:f8:f2:16:4a:05:
        c3:04:f6:d2:fe:21:c3:a2:ca:9b:cf:69:d6:53:2c:54:40:5a:
        c0:ee:cb:72:26:1a:c6:29:ac:1a:32:cc:57:33:1a:bc:f0:fc:
        2f:d2:57:f4:21:f0:c0:f6:c1:43:85:ae:ae:ad:2e:01:39:57:
        e6:cf:73:59:34:db:05:d5:71:a0:e0:0d:86:f2:04:11:4b:b5:
        d8:75:96:9b:14:01:39:d4:41:31:e8:8a:c5:40:64:a5:c3:b1:
        4c:ed:e5:eb:d4:11:b1:d3:b8:6e:3a:ec:1a:de:2c:1f:8f:1f:
        4f:b1:a2:c0:16:c8:6a:09:ed:49:bb:95:68:05:5a:46:74:13:
        f2:4f:bc:9c:10:ef:57:8c:f3:08:e4:1a:d2:74:58:dd:5d:43:
        d9:92:a0:a8:b2:6b:32:fe:d7:f9:eb:15:5a:26:a1:0a:d1:85:
        20:22:c7:fb:d3:6b:2f:62:ed:8e:2a:51:6c:f4:9c:72:b1:f3:
        e3:8b:fe:08:2c:72:fd:58:cf:9e:06:c4:16:73:f5:a5:52:20:
        b8:87:0b:7f:7a:35:8d:85:71:8c:c7:68:b0:3f:21:e4:44:6c:
        53:a1:32:f1:2f:d9:ef:bf:d0:4a:53:ab:a0:f6:1e:77:b4:5e:
        10:e7:fe:47
-----BEGIN CERTIFICATE-----
MIIE3jCCA8agAwIBAgIBATANBgkqhkiG9w0BAQQFADCBlzELMAkGA1UEBhMCTkwx
CzAJBgNVBAgTAk5IMRIwEAYDVQQHEwlBbXN0ZXJkYW0xGDAWBgNVBAoTD0hpU1BB
UkMsIE5pa2hlZjEQMA4GA1UECxMHSGlTUEFSQzEZMBcGA1UEAxMQdGlldGFyLm5p
a2hlZi5ubDEgMB4GCSqGSIb3DQEJARYRaGlzcGFyY0BuaWtoZWYubmwwHhcNMDgw
MzAzMDk1NTE4WhcNMTgwMzAxMDk1NTE4WjCBgzELMAkGA1UEBhMCTkwxCzAJBgNV
BAgTAk5IMRgwFgYDVQQKEw9IaVNQQVJDLCBOaWtoZWYxEDAOBgNVBAsTB0hpU1BB
UkMxGTAXBgNVBAMTEHRpZXRhci5uaWtoZWYubmwxIDAeBgkqhkiG9w0BCQEWEWhp
c3BhcmNAbmlraGVmLm5sMIIBIjANBgkqhkiG9w0BAQEFAAOCAQ8AMIIBCgKCAQEA
uXx08mqvN6i8FaSVJukz42s5WwAw7mYPJn1s+DcZdAL+K1eeBcY4voscBcjJYkwr
s5L0M+bx0DV9IGb2sCFFUjA/G6jljzDdWsvBAEGQWZJXpmqz2B52wkA+G9gfMzLR
rONauje7y7z2cXkUNN6dC/W2yvnG2d7IRSSavDF0FGkaxmqmoabpdlhqT/tUK50/
nRiE63KXPAcAL4YQ9BjCvSDJaBYrZntfK1BkYnwySSMsoxVym3czS14E744HY/UK
HmznRN4d90/AbP8m40nMBmGRsCqq40gayrl6Jw8puHkGlz/aWNFEcExUMLAQQJ7o
yFIem5FT2arkE5SBM92DkwIDAQABo4IBRTCCAUEwCQYDVR0TBAIwADARBglghkgB
hvhCAQEEBAMCBkAwMwYJYIZIAYb4QgENBCYWJE9wZW5TU0wgR2VuZXJhdGVkIFNl
cnZlciBDZXJ0aWZpY2F0ZTAdBgNVHQ4EFgQUARCRQWyACSpszN360DyfAL1bmQow
gcwGA1UdIwSBxDCBwYAUq8NHFNLumxvm49xPWXCVVcYGcvGhgZ2kgZowgZcxCzAJ
BgNVBAYTAk5MMQswCQYDVQQIEwJOSDESMBAGA1UEBxMJQW1zdGVyZGFtMRgwFgYD
VQQKEw9IaVNQQVJDLCBOaWtoZWYxEDAOBgNVBAsTB0hpU1BBUkMxGTAXBgNVBAMT
EHRpZXRhci5uaWtoZWYubmwxIDAeBgkqhkiG9w0BCQEWEWhpc3BhcmNAbmlraGVm
Lm5sggkAxbbTnQmIZq0wDQYJKoZIhvcNAQEEBQADggEBAHMIBt2cjr4Zkqa2YUr4
8hZKBcME9tL+IcOiypvPadZTLFRAWsDuy3ImGsYprBoyzFczGrzw/C/SV/Qh8MD2
wUOFrq6tLgE5V+bPc1k02wXVcaDgDYbyBBFLtdh1lpsUATnUQTHoisVAZKXDsUzt
5evUEbHTuG467BreLB+PH0+xosAWyGoJ7Um7lWgFWkZ0E/JPvJwQ71eM8wjkGtJ0
WN1dQ9mSoKiyazL+1/nrFVomoQrRhSAix/vTay9i7Y4qUWz0nHKx8+OL/ggscv1Y
z54GxBZz9aVSILiHC396NY2FcYzHaLA/IeREbFOhMvEv2e+/0EpTq6D2Hne0XhDn
/kc=
-----END CERTIFICATE-----
