Certificate:
    Data:
        Version: 3 (0x2)
        Serial Number: 1 (0x1)
        Signature Algorithm: md5WithRSAEncryption
        Issuer: C=NL, ST=NH, L=Amsterdam, O=HiSPARC, Nikhef, OU=HiSPARC, CN=Admin HiSPARC/emailAddress=hisparc@nikhef.nl
        Validity
            Not Before: Apr 18 08:40:39 2008 GMT
            Not After : Apr 16 08:40:39 2018 GMT
        Subject: C=NL, ST=NH, O=HiSPARC, Nikhef, OU=HiSPARC, CN=server/emailAddress=hisparc@nikhef.nl
        Subject Public Key Info:
            Public Key Algorithm: rsaEncryption
            RSA Public Key: (2048 bit)
                Modulus (2048 bit):
                    00:bc:96:92:11:0f:df:f1:5d:1d:fd:e7:21:50:14:
                    cd:17:f7:81:ac:3d:65:c0:b2:46:2a:c0:41:ae:55:
                    0a:46:55:d7:2a:20:70:e4:1b:f1:0e:f3:80:d1:34:
                    60:33:f4:3a:4a:cc:8a:50:6b:9a:d0:ef:7f:9e:1f:
                    20:49:76:51:f0:f0:41:2f:7a:9e:f2:b8:48:ef:b9:
                    92:50:57:ea:cf:77:68:22:cf:58:68:a1:8d:7e:b7:
                    42:b1:e7:a2:5b:67:da:5d:6d:22:9f:9a:47:61:33:
                    10:6f:51:81:d7:3f:2b:29:8f:cf:f8:db:26:57:ca:
                    14:2b:b3:ce:68:8e:44:df:28:8a:df:d5:32:3f:74:
                    ff:31:80:a5:7b:35:0b:3f:33:46:51:de:d4:58:8f:
                    06:f3:06:1d:a0:7d:2d:87:0a:0d:6d:e0:05:ee:93:
                    4e:32:55:cc:d3:47:0a:79:57:f8:ea:8b:be:a2:7e:
                    89:8e:5d:97:52:fc:e4:00:7a:3b:ad:c0:74:04:a4:
                    de:b5:6c:25:ef:7c:ff:57:03:53:7f:db:b4:95:f0:
                    1e:83:8d:be:50:b3:01:34:9e:cb:4c:29:72:a8:08:
                    9a:b3:31:6c:a4:af:34:be:14:27:c2:a1:e1:ac:0a:
                    3b:c0:02:5f:17:8a:84:61:15:60:bb:76:5f:e0:40:
                    36:b7
                Exponent: 65537 (0x10001)
        X509v3 extensions:
            X509v3 Basic Constraints: 
                CA:FALSE
            Netscape Cert Type: 
                SSL Server
            Netscape Comment: 
                OpenSSL Generated Server Certificate
            X509v3 Subject Key Identifier: 
                16:21:5A:7A:F3:E7:85:5E:2D:C0:01:62:04:5D:B1:F4:48:65:9E:1C
            X509v3 Authority Key Identifier: 
                keyid:6F:3A:77:4E:E9:7B:F2:BC:24:1B:2D:EE:D2:0D:8A:43:C1:74:AD:8E
                DirName:/C=NL/ST=NH/L=Amsterdam/O=HiSPARC, Nikhef/OU=HiSPARC/CN=Admin HiSPARC/emailAddress=hisparc@nikhef.nl
                serial:8D:37:67:90:3F:2B:90:A0

    Signature Algorithm: md5WithRSAEncryption
        47:19:71:62:16:00:4f:2a:b5:c4:ba:1c:4c:62:78:80:81:ae:
        12:e8:1e:37:75:4f:09:9f:29:86:c0:2f:fd:e2:0d:cf:92:4b:
        07:5d:0b:fd:0b:20:39:da:05:b7:87:30:9b:ed:b6:9b:0c:15:
        fb:ba:4b:d8:96:57:db:97:f7:69:f0:48:47:4a:05:95:ea:7d:
        cd:f4:96:4a:11:5c:14:4b:5d:33:71:67:30:1e:79:3e:4b:41:
        61:9c:c1:81:f6:18:87:53:b3:9e:c5:b7:35:85:9d:41:d5:3d:
        42:e1:b4:1c:9f:25:3c:a9:e8:d9:eb:98:d4:8f:0a:6b:70:c0:
        85:68:f7:9f:75:64:59:34:19:80:78:b0:f7:83:13:8d:ef:2e:
        2f:f0:b3:de:da:74:01:a5:f0:32:7a:f6:c6:87:be:00:aa:2b:
        59:9a:87:02:fd:f5:99:4b:cb:cf:12:a9:84:aa:79:d3:22:5f:
        ff:f9:b3:df:5b:c5:12:ff:ed:cd:b1:22:6e:5b:b6:06:bf:9e:
        1b:80:aa:2f:c6:8e:c0:76:7b:37:94:dc:9b:f5:68:69:1d:73:
        2a:a2:f2:2c:00:a6:31:c7:46:7d:97:37:65:08:f7:a4:42:6d:
        9f:12:ef:18:2b:a4:ac:63:c5:4c:7e:47:c9:b3:f1:b0:2d:bb:
        54:ee:e7:15
-----BEGIN CERTIFICATE-----
MIIEzTCCA7WgAwIBAgIBATANBgkqhkiG9w0BAQQFADCBlDELMAkGA1UEBhMCTkwx
CzAJBgNVBAgTAk5IMRIwEAYDVQQHEwlBbXN0ZXJkYW0xGDAWBgNVBAoTD0hpU1BB
UkMsIE5pa2hlZjEQMA4GA1UECxMHSGlTUEFSQzEWMBQGA1UEAxMNQWRtaW4gSGlT
UEFSQzEgMB4GCSqGSIb3DQEJARYRaGlzcGFyY0BuaWtoZWYubmwwHhcNMDgwNDE4
MDg0MDM5WhcNMTgwNDE2MDg0MDM5WjB5MQswCQYDVQQGEwJOTDELMAkGA1UECBMC
TkgxGDAWBgNVBAoTD0hpU1BBUkMsIE5pa2hlZjEQMA4GA1UECxMHSGlTUEFSQzEP
MA0GA1UEAxMGc2VydmVyMSAwHgYJKoZIhvcNAQkBFhFoaXNwYXJjQG5pa2hlZi5u
bDCCASIwDQYJKoZIhvcNAQEBBQADggEPADCCAQoCggEBALyWkhEP3/FdHf3nIVAU
zRf3gaw9ZcCyRirAQa5VCkZV1yogcOQb8Q7zgNE0YDP0OkrMilBrmtDvf54fIEl2
UfDwQS96nvK4SO+5klBX6s93aCLPWGihjX63QrHnoltn2l1tIp+aR2EzEG9Rgdc/
KymPz/jbJlfKFCuzzmiORN8oit/VMj90/zGApXs1Cz8zRlHe1FiPBvMGHaB9LYcK
DW3gBe6TTjJVzNNHCnlX+OqLvqJ+iY5dl1L85AB6O63AdASk3rVsJe98/1cDU3/b
tJXwHoONvlCzATSey0wpcqgImrMxbKSvNL4UJ8Kh4awKO8ACXxeKhGEVYLt2X+BA
NrcCAwEAAaOCAUIwggE+MAkGA1UdEwQCMAAwEQYJYIZIAYb4QgEBBAQDAgZAMDMG
CWCGSAGG+EIBDQQmFiRPcGVuU1NMIEdlbmVyYXRlZCBTZXJ2ZXIgQ2VydGlmaWNh
dGUwHQYDVR0OBBYEFBYhWnrz54VeLcABYgRdsfRIZZ4cMIHJBgNVHSMEgcEwgb6A
FG86d07pe/K8JBst7tINikPBdK2OoYGapIGXMIGUMQswCQYDVQQGEwJOTDELMAkG
A1UECBMCTkgxEjAQBgNVBAcTCUFtc3RlcmRhbTEYMBYGA1UEChMPSGlTUEFSQywg
TmlraGVmMRAwDgYDVQQLEwdIaVNQQVJDMRYwFAYDVQQDEw1BZG1pbiBIaVNQQVJD
MSAwHgYJKoZIhvcNAQkBFhFoaXNwYXJjQG5pa2hlZi5ubIIJAI03Z5A/K5CgMA0G
CSqGSIb3DQEBBAUAA4IBAQBHGXFiFgBPKrXEuhxMYniAga4S6B43dU8JnymGwC/9
4g3PkksHXQv9CyA52gW3hzCb7babDBX7ukvYllfbl/dp8EhHSgWV6n3N9JZKEVwU
S10zcWcwHnk+S0FhnMGB9hiHU7Oexbc1hZ1B1T1C4bQcnyU8qejZ65jUjwprcMCF
aPefdWRZNBmAeLD3gxON7y4v8LPe2nQBpfAyevbGh74AqitZmocC/fWZS8vPEqmE
qnnTIl//+bPfW8US/+3NsSJuW7YGv54bgKovxo7Adns3lNyb9WhpHXMqovIsAKYx
x0Z9lzdlCPekQm2fEu8YK6SsY8VMfkfJs/GwLbtU7ucV
-----END CERTIFICATE-----
